; Function Attrs: mustprogress nofree norecurse nosync nounwind willreturn memory(read, argmem: readwrite, inaccessiblemem: none) uwtable
define void @_ZN14duckdb_parquet17BloomFilterHeaderC2Ev(ptr noundef nonnull align 8 captures(none) dereferenceable(88) initializes((0, 12), (16, 32), (40, 56), (64, 80)) %0, ptr noundef readonly captures(none) %1) unnamed_addr #7 align 2 personality ptr @__gxx_personality_v0 {
  %3 = load ptr, ptr %1, align 8
  store ptr %3, ptr %0, align 8, !tbaa !22
  %4 = getelementptr inbounds nuw i8, ptr %1, i64 8
  %5 = load ptr, ptr %4, align 8
  %6 = getelementptr i8, ptr %3, i64 -48
  %7 = load i64, ptr %6, align 8
  %8 = getelementptr inbounds i8, ptr %0, i64 %7
  store ptr %5, ptr %8, align 8, !tbaa !22
  %9 = getelementptr inbounds nuw i8, ptr %0, i64 8
  store i32 0, ptr %9, align 8, !tbaa !417
  %10 = getelementptr inbounds nuw i8, ptr %0, i64 16
  store ptr getelementptr inbounds nuw inrange(-48, 40) (i8, ptr @_ZTVN14duckdb_parquet20BloomFilterAlgorithmE, i64 48), ptr %10, align 8, !tbaa !22
  %11 = getelementptr inbounds nuw i8, ptr %0, i64 24
  store ptr getelementptr inbounds nuw inrange(-48, 40) (i8, ptr @_ZTVN14duckdb_parquet19SplitBlockAlgorithmE, i64 48), ptr %11, align 8, !tbaa !22
  %12 = getelementptr inbounds nuw i8, ptr %0, i64 32
  %13 = load i8, ptr %12, align 8
  %14 = and i8 %13, -2
  store i8 %14, ptr %12, align 8
  %15 = getelementptr inbounds nuw i8, ptr %0, i64 40
  store ptr getelementptr inbounds nuw inrange(-48, 40) (i8, ptr @_ZTVN14duckdb_parquet15BloomFilterHashE, i64 48), ptr %15, align 8, !tbaa !22
  %16 = getelementptr inbounds nuw i8, ptr %0, i64 48
  store ptr getelementptr inbounds nuw inrange(-48, 40) (i8, ptr @_ZTVN14duckdb_parquet6XxHashE, i64 48), ptr %16, align 8, !tbaa !22
  %17 = getelementptr inbounds nuw i8, ptr %0, i64 56
  %18 = load i8, ptr %17, align 8
  %19 = and i8 %18, -2
  store i8 %19, ptr %17, align 8
  %20 = getelementptr inbounds nuw i8, ptr %0, i64 64
  store ptr getelementptr inbounds nuw inrange(-48, 40) (i8, ptr @_ZTVN14duckdb_parquet22BloomFilterCompressionE, i64 48), ptr %20, align 8, !tbaa !22
  %21 = getelementptr inbounds nuw i8, ptr %0, i64 72
  store ptr getelementptr inbounds nuw inrange(-48, 40) (i8, ptr @_ZTVN14duckdb_parquet12UncompressedE, i64 48), ptr %21, align 8, !tbaa !22
  %22 = getelementptr inbounds nuw i8, ptr %0, i64 80
  %23 = load i8, ptr %22, align 8
  %24 = and i8 %23, -2
  store i8 %24, ptr %22, align 8
  ret void
}